target datalayout = "e-m:e-p270:32:32-p271:32:32-p272:64:64-i64:64-i128:128-f80:128-n8:16:32:64-S128"
target triple = "x86_64-pc-linux-gnu"

%"class.std::__cxx11::basic_string" = type { %"struct.std::__cxx11::basic_string<char>::_Alloc_hider", i64, %union.anon.0 }
%"struct.std::__cxx11::basic_string<char>::_Alloc_hider" = type { ptr }
%union.anon.0 = type { i64, [8 x i8] }
%"class.tl::expected" = type { %"struct.tl::detail::expected_move_assign_base.base", [7 x i8] }
%"struct.tl::detail::expected_move_assign_base.base" = type { %"struct.tl::detail::expected_copy_assign_base.base" }
%"struct.tl::detail::expected_copy_assign_base.base" = type { %"struct.tl::detail::expected_move_base.base" }
%"struct.tl::detail::expected_move_base.base" = type { %"struct.tl::detail::expected_copy_base.base" }
%"struct.tl::detail::expected_copy_base.base" = type { %"struct.tl::detail::expected_operations_base.base" }
%"struct.tl::detail::expected_operations_base.base" = type { %"struct.tl::detail::expected_storage_base.base" }
%"struct.tl::detail::expected_storage_base.base" = type <{ %union.anon.49, i8 }>
%union.anon.49 = type { i64 }
%"class.LIEF::ELF::CorePrStatus" = type { %"class.LIEF::ELF::Note", i32, i32 }
%"class.LIEF::ELF::Note" = type { %"class.LIEF::Object", %"class.std::__cxx11::basic_string", i32, i32, %"class.std::vector.44" }
%"class.LIEF::Object" = type { ptr }
%"class.std::vector.44" = type { %"struct.std::_Vector_base.45" }
%"struct.std::_Vector_base.45" = type { %"struct.std::_Vector_base<unsigned char, std::allocator<unsigned char>>::_Vector_impl" }
%"struct.std::_Vector_base<unsigned char, std::allocator<unsigned char>>::_Vector_impl" = type { %"struct.std::_Vector_base<unsigned char, std::allocator<unsigned char>>::_Vector_impl_data" }
%"struct.std::_Vector_base<unsigned char, std::allocator<unsigned char>>::_Vector_impl_data" = type { ptr, ptr, ptr }
%"struct.tl::detail::expected_storage_base" = type <{ %union.anon.49, i8, [7 x i8] }>
%"class.tl::unexpected" = type { i32 }

; Function Attrs: mustprogress nounwind uwtable
define linkonce_odr hidden void @_ZN2tl10unexpectedI11lief_errorsEC2EOS1_(ptr noundef nonnull align 4 dereferenceable(4) %0, ptr noundef nonnull align 4 dereferenceable(4) %1) unnamed_addr #1 comdat align 2 {
  %3 = alloca ptr, align 8
  %4 = alloca ptr, align 8
  store ptr %0, ptr %3, align 8
  store ptr %1, ptr %4, align 8
  %5 = load ptr, ptr %3, align 8
  %6 = getelementptr inbounds %"class.tl::unexpected", ptr %5, i32 0, i32 0
  %7 = load ptr, ptr %4, align 8
  %8 = load i32, ptr %7, align 4
  store i32 %8, ptr %6, align 4
  ret void
}

; Function Attrs: mustprogress uwtable
define linkonce_odr hidden void @_ZN2tl6detail21expected_storage_baseIm11lief_errorsLb1ELb1EEC2IJS2_ETnPNSt9enable_ifIXsr3std16is_constructibleIS2_DpOT_EE5valueEvE4typeELPv0EEENS_10unexpect_tES8_(ptr noundef nonnull align 8 dereferenceable(9) %0, ptr noundef nonnull align 4 dereferenceable(4) %1) unnamed_addr #3 comdat align 2 {
  %3 = alloca ptr, align 8
  %4 = alloca ptr, align 8
  store ptr %0, ptr %3, align 8
  store ptr %1, ptr %4, align 8
  %5 = load ptr, ptr %3, align 8
  %6 = getelementptr inbounds %"struct.tl::detail::expected_storage_base", ptr %5, i32 0, i32 0
  %7 = load ptr, ptr %4, align 8
  call void @_ZN2tl10unexpectedI11lief_errorsEC2EOS1_(ptr noundef nonnull align 4 dereferenceable(4) %6, ptr noundef nonnull align 4 dereferenceable(4) %7)
  %8 = getelementptr inbounds %"struct.tl::detail::expected_storage_base", ptr %5, i32 0, i32 1
  store i8 0, ptr %8, align 8
  ret void
}

; Function Attrs: mustprogress uwtable
define linkonce_odr hidden void @_ZN2tl6detail24expected_operations_baseIm11lief_errorsECI2NS0_21expected_storage_baseImS2_Lb1ELb1EEEIJS2_ETnPNSt9enable_ifIXsr3std16is_constructibleIS2_DpOT_EE5valueEvE4typeELPv0EEENS_10unexpect_tES8_(ptr noundef nonnull align 8 dereferenceable(9) %0, ptr noundef nonnull align 4 dereferenceable(4) %1) unnamed_addr #3 comdat align 2 {
  %3 = alloca ptr, align 8
  %4 = alloca ptr, align 8
  store ptr %0, ptr %3, align 8
  store ptr %1, ptr %4, align 8
  %5 = load ptr, ptr %3, align 8
  %6 = load ptr, ptr %4, align 8
  call void @_ZN2tl6detail21expected_storage_baseIm11lief_errorsLb1ELb1EEC2IJS2_ETnPNSt9enable_ifIXsr3std16is_constructibleIS2_DpOT_EE5valueEvE4typeELPv0EEENS_10unexpect_tES8_(ptr noundef nonnull align 8 dereferenceable(9) %5, ptr noundef nonnull align 4 dereferenceable(4) %6)
  ret void
}

; Function Attrs: mustprogress uwtable
define linkonce_odr hidden void @_ZN2tl6detail18expected_copy_baseIm11lief_errorsLb1EECI2NS0_21expected_storage_baseImS2_Lb1ELb1EEEIJS2_ETnPNSt9enable_ifIXsr3std16is_constructibleIS2_DpOT_EE5valueEvE4typeELPv0EEENS_10unexpect_tES8_(ptr noundef nonnull align 8 dereferenceable(9) %0, ptr noundef nonnull align 4 dereferenceable(4) %1) unnamed_addr #3 comdat align 2 {
  %3 = alloca ptr, align 8
  %4 = alloca ptr, align 8
  store ptr %0, ptr %3, align 8
  store ptr %1, ptr %4, align 8
  %5 = load ptr, ptr %3, align 8
  %6 = load ptr, ptr %4, align 8
  call void @_ZN2tl6detail24expected_operations_baseIm11lief_errorsECI2NS0_21expected_storage_baseImS2_Lb1ELb1EEEIJS2_ETnPNSt9enable_ifIXsr3std16is_constructibleIS2_DpOT_EE5valueEvE4typeELPv0EEENS_10unexpect_tES8_(ptr noundef nonnull align 8 dereferenceable(9) %5, ptr noundef nonnull align 4 dereferenceable(4) %6)
  ret void
}

; Function Attrs: mustprogress uwtable
define linkonce_odr hidden void @_ZN2tl6detail18expected_move_baseIm11lief_errorsLb1EECI2NS0_21expected_storage_baseImS2_Lb1ELb1EEEIJS2_ETnPNSt9enable_ifIXsr3std16is_constructibleIS2_DpOT_EE5valueEvE4typeELPv0EEENS_10unexpect_tES8_(ptr noundef nonnull align 8 dereferenceable(9) %0, ptr noundef nonnull align 4 dereferenceable(4) %1) unnamed_addr #3 comdat align 2 {
  %3 = alloca ptr, align 8
  %4 = alloca ptr, align 8
  store ptr %0, ptr %3, align 8
  store ptr %1, ptr %4, align 8
  %5 = load ptr, ptr %3, align 8
  %6 = load ptr, ptr %4, align 8
  call void @_ZN2tl6detail18expected_copy_baseIm11lief_errorsLb1EECI2NS0_21expected_storage_baseImS2_Lb1ELb1EEEIJS2_ETnPNSt9enable_ifIXsr3std16is_constructibleIS2_DpOT_EE5valueEvE4typeELPv0EEENS_10unexpect_tES8_(ptr noundef nonnull align 8 dereferenceable(9) %5, ptr noundef nonnull align 4 dereferenceable(4) %6)
  ret void
}

; Function Attrs: mustprogress uwtable
define linkonce_odr hidden void @_ZN2tl6detail25expected_copy_assign_baseIm11lief_errorsLb1EECI2NS0_21expected_storage_baseImS2_Lb1ELb1EEEIJS2_ETnPNSt9enable_ifIXsr3std16is_constructibleIS2_DpOT_EE5valueEvE4typeELPv0EEENS_10unexpect_tES8_(ptr noundef nonnull align 8 dereferenceable(9) %0, ptr noundef nonnull align 4 dereferenceable(4) %1) unnamed_addr #3 comdat align 2 {
  %3 = alloca ptr, align 8
  %4 = alloca ptr, align 8
  store ptr %0, ptr %3, align 8
  store ptr %1, ptr %4, align 8
  %5 = load ptr, ptr %3, align 8
  %6 = load ptr, ptr %4, align 8
  call void @_ZN2tl6detail18expected_move_baseIm11lief_errorsLb1EECI2NS0_21expected_storage_baseImS2_Lb1ELb1EEEIJS2_ETnPNSt9enable_ifIXsr3std16is_constructibleIS2_DpOT_EE5valueEvE4typeELPv0EEENS_10unexpect_tES8_(ptr noundef nonnull align 8 dereferenceable(9) %5, ptr noundef nonnull align 4 dereferenceable(4) %6)
  ret void
}

; Function Attrs: mustprogress nounwind uwtable
define linkonce_odr hidden void @_ZN2tl10unexpectedI11lief_errorsEC2IJRS1_ETnPNSt9enable_ifIXsr3std16is_constructibleIS1_DpOT_EE5valueEvE4typeELPv0EEES8_(ptr noundef nonnull align 4 dereferenceable(4) %0, ptr noundef nonnull align 4 dereferenceable(4) %1) unnamed_addr #1 comdat align 2 {
  %3 = alloca ptr, align 8
  %4 = alloca ptr, align 8
  store ptr %0, ptr %3, align 8
  store ptr %1, ptr %4, align 8
  %5 = load ptr, ptr %3, align 8
  %6 = getelementptr inbounds %"class.tl::unexpected", ptr %5, i32 0, i32 0
  %7 = load ptr, ptr %4, align 8
  %8 = load i32, ptr %7, align 4
  store i32 %8, ptr %6, align 4
  ret void
}

; Function Attrs: noreturn nounwind uwtable
define linkonce_odr hidden void @__clang_call_terminate(ptr noundef %0) #7 comdat {
  %2 = call ptr @__cxa_begin_catch(ptr %0) #16
  call void @_ZSt9terminatev() #19
  unreachable
}

; Function Attrs: mustprogress nounwind uwtable
define linkonce_odr hidden void @_ZN2tl6detail26expected_default_ctor_baseIm11lief_errorsLb1EEC2ENS0_23default_constructor_tagE(ptr noundef nonnull align 1 dereferenceable(1) %0) unnamed_addr #1 comdat align 2 {
  %2 = alloca ptr, align 8
  store ptr %0, ptr %2, align 8
  ret void
}

; Function Attrs: mustprogress uwtable
define linkonce_odr hidden void @_ZN2tl6detail25expected_move_assign_baseIm11lief_errorsLb1EECI2NS0_21expected_storage_baseImS2_Lb1ELb1EEEIJS2_ETnPNSt9enable_ifIXsr3std16is_constructibleIS2_DpOT_EE5valueEvE4typeELPv0EEENS_10unexpect_tES8_(ptr noundef nonnull align 8 dereferenceable(9) %0, ptr noundef nonnull align 4 dereferenceable(4) %1) unnamed_addr #3 comdat align 2 {
  %3 = alloca ptr, align 8
  %4 = alloca ptr, align 8
  store ptr %0, ptr %3, align 8
  store ptr %1, ptr %4, align 8
  %5 = load ptr, ptr %3, align 8
  %6 = load ptr, ptr %4, align 8
  call void @_ZN2tl6detail25expected_copy_assign_baseIm11lief_errorsLb1EECI2NS0_21expected_storage_baseImS2_Lb1ELb1EEEIJS2_ETnPNSt9enable_ifIXsr3std16is_constructibleIS2_DpOT_EE5valueEvE4typeELPv0EEENS_10unexpect_tES8_(ptr noundef nonnull align 8 dereferenceable(9) %5, ptr noundef nonnull align 4 dereferenceable(4) %6)
  ret void
}

; Function Attrs: mustprogress nounwind uwtable
define linkonce_odr hidden noundef nonnull align 4 dereferenceable(4) ptr @_ZNR2tl10unexpectedI11lief_errorsE5valueEv(ptr noundef nonnull align 4 dereferenceable(4) %0) #1 comdat align 2 {
  %2 = alloca ptr, align 8
  store ptr %0, ptr %2, align 8
  %3 = load ptr, ptr %2, align 8
  %4 = getelementptr inbounds %"class.tl::unexpected", ptr %3, i32 0, i32 0
  ret ptr %4
}

; Function Attrs: mustprogress uwtable
define linkonce_odr hidden i32 @_ZN2tl15make_unexpectedIR11lief_errorsEENS_10unexpectedINSt5decayIT_E4typeEEEOS5_(ptr noundef nonnull align 4 dereferenceable(4) %0) #3 comdat {
  %2 = alloca %"class.tl::unexpected", align 4
  %3 = alloca ptr, align 8
  store ptr %0, ptr %3, align 8
  %4 = load ptr, ptr %3, align 8
  call void @_ZN2tl10unexpectedI11lief_errorsEC2IJRS1_ETnPNSt9enable_ifIXsr3std16is_constructibleIS1_DpOT_EE5valueEvE4typeELPv0EEES8_(ptr noundef nonnull align 4 dereferenceable(4) %2, ptr noundef nonnull align 4 dereferenceable(4) %4)
  %5 = getelementptr inbounds %"class.tl::unexpected", ptr %2, i32 0, i32 0
  %6 = load i32, ptr %5, align 4
  ret i32 %6
}

; Function Attrs: mustprogress nounwind uwtable
define linkonce_odr hidden void @_ZN2tl8expectedIm11lief_errorsEC2IS1_TnPNSt9enable_ifIXsr3std16is_constructibleIS1_OT_EE5valueEvE4typeELPv0ETnPNS4_IXsr3std14is_convertibleIS6_S1_EE5valueEvE4typeELSA_0EEEONS_10unexpectedIS5_EE(ptr noundef nonnull align 8 dereferenceable(9) %0, ptr noundef nonnull align 4 dereferenceable(4) %1) unnamed_addr #1 comdat align 2 personality ptr @__gxx_personality_v0 {
  %3 = alloca ptr, align 8
  %4 = alloca ptr, align 8
  store ptr %0, ptr %3, align 8
  store ptr %1, ptr %4, align 8
  %5 = load ptr, ptr %3, align 8
  %6 = load ptr, ptr %4, align 8
  %7 = invoke noundef nonnull align 4 dereferenceable(4) ptr @_ZNR2tl10unexpectedI11lief_errorsE5valueEv(ptr noundef nonnull align 4 dereferenceable(4) %6)
          to label %8 unwind label %11

8:                                                ; preds = %2
  invoke void @_ZN2tl6detail25expected_move_assign_baseIm11lief_errorsLb1EECI2NS0_21expected_storage_baseImS2_Lb1ELb1EEEIJS2_ETnPNSt9enable_ifIXsr3std16is_constructibleIS2_DpOT_EE5valueEvE4typeELPv0EEENS_10unexpect_tES8_(ptr noundef nonnull align 8 dereferenceable(9) %5, ptr noundef nonnull align 4 dereferenceable(4) %7)
          to label %9 unwind label %11

9:                                                ; preds = %8
  invoke void @_ZN2tl6detail26expected_default_ctor_baseIm11lief_errorsLb1EEC2ENS0_23default_constructor_tagE(ptr noundef nonnull align 1 dereferenceable(1) %5)
          to label %10 unwind label %11

10:                                               ; preds = %9
  ret void

11:                                               ; preds = %9, %8, %2
  %12 = landingpad { ptr, i32 }
          catch ptr null
  %13 = extractvalue { ptr, i32 } %12, 0
  call void @__clang_call_terminate(ptr %13) #19
  unreachable
}

; Function Attrs: mustprogress uwtable
define linkonce_odr hidden i32 @_Z15make_error_code11lief_errors(i32 noundef %0) #3 comdat {
  %2 = alloca %"class.tl::unexpected", align 4
  %3 = alloca i32, align 4
  store i32 %0, ptr %3, align 4
  %4 = call i32 @_ZN2tl15make_unexpectedIR11lief_errorsEENS_10unexpectedINSt5decayIT_E4typeEEEOS5_(ptr noundef nonnull align 4 dereferenceable(4) %3)
  %5 = getelementptr inbounds %"class.tl::unexpected", ptr %2, i32 0, i32 0
  store i32 %4, ptr %5, align 4
  %6 = getelementptr inbounds %"class.tl::unexpected", ptr %2, i32 0, i32 0
  %7 = load i32, ptr %6, align 4
  ret i32 %7
}

; Function Attrs: mustprogress uwtable
define { i64, i8 } @_ZNK4LIEF3ELF12CorePrStatus3getENS1_9Registers6X86_64E(ptr noundef nonnull align 8 dereferenceable(80) %0, i32 noundef %1) #3 align 2 {
  %3 = alloca %"class.tl::expected", align 8
  %4 = alloca ptr, align 8
  %5 = alloca i32, align 4
  store ptr %0, ptr %4, align 8
  store i32 %1, ptr %5, align 4
  %6 = load ptr, ptr %4, align 8
  %7 = load i32, ptr %5, align 4
  %8 = getelementptr inbounds %"class.LIEF::ELF::Note", ptr %6, i32 0, i32 4
  %9 = getelementptr inbounds %"class.LIEF::ELF::CorePrStatus", ptr %6, i32 0, i32 2
  %10 = load i32, ptr %9, align 4
  %11 = getelementptr inbounds %"class.LIEF::ELF::CorePrStatus", ptr %6, i32 0, i32 1
  %12 = load i32, ptr %11, align 8
  %13 = call { i64, i8 } @_ZN4LIEF3ELF12get_reg_implINS0_12CorePrStatus9Registers6X86_64EEEN2tl8expectedIm11lief_errorsEET_RKSt6vectorIhSaIhEENS0_6Header5CLASSENS0_4ARCHE(i32 noundef %7, ptr noundef nonnull align 8 dereferenceable(24) %8, i32 noundef %10, i32 noundef %12)
  %14 = getelementptr inbounds { i64, i8 }, ptr %3, i32 0, i32 0
  %15 = extractvalue { i64, i8 } %13, 0
  store i64 %15, ptr %14, align 8
  %16 = getelementptr inbounds { i64, i8 }, ptr %3, i32 0, i32 1
  %17 = extractvalue { i64, i8 } %13, 1
  store i8 %17, ptr %16, align 8
  %18 = load { i64, i8 }, ptr %3, align 8
  ret { i64, i8 } %18
}

; Function Attrs: mustprogress uwtable
define { i64, i8 } @_ZNK4LIEF3ELF12CorePrStatus3getENS1_9Registers3X86E(ptr noundef nonnull align 8 dereferenceable(80) %0, i32 noundef %1) #3 align 2 {
  %3 = alloca %"class.tl::expected", align 8
  %4 = alloca ptr, align 8
  %5 = alloca i32, align 4
  store ptr %0, ptr %4, align 8
  store i32 %1, ptr %5, align 4
  %6 = load ptr, ptr %4, align 8
  %7 = load i32, ptr %5, align 4
  %8 = getelementptr inbounds %"class.LIEF::ELF::Note", ptr %6, i32 0, i32 4
  %9 = getelementptr inbounds %"class.LIEF::ELF::CorePrStatus", ptr %6, i32 0, i32 2
  %10 = load i32, ptr %9, align 4
  %11 = getelementptr inbounds %"class.LIEF::ELF::CorePrStatus", ptr %6, i32 0, i32 1
  %12 = load i32, ptr %11, align 8
  %13 = call { i64, i8 } @_ZN4LIEF3ELF12get_reg_implINS0_12CorePrStatus9Registers3X86EEEN2tl8expectedIm11lief_errorsEET_RKSt6vectorIhSaIhEENS0_6Header5CLASSENS0_4ARCHE(i32 noundef %7, ptr noundef nonnull align 8 dereferenceable(24) %8, i32 noundef %10, i32 noundef %12)
  %14 = getelementptr inbounds { i64, i8 }, ptr %3, i32 0, i32 0
  %15 = extractvalue { i64, i8 } %13, 0
  store i64 %15, ptr %14, align 8
  %16 = getelementptr inbounds { i64, i8 }, ptr %3, i32 0, i32 1
  %17 = extractvalue { i64, i8 } %13, 1
  store i8 %17, ptr %16, align 8
  %18 = load { i64, i8 }, ptr %3, align 8
  ret { i64, i8 } %18
}

; Function Attrs: mustprogress uwtable
define { i64, i8 } @_ZNK4LIEF3ELF12CorePrStatus3getENS1_9Registers3ARME(ptr noundef nonnull align 8 dereferenceable(80) %0, i32 noundef %1) #3 align 2 {
  %3 = alloca %"class.tl::expected", align 8
  %4 = alloca ptr, align 8
  %5 = alloca i32, align 4
  store ptr %0, ptr %4, align 8
  store i32 %1, ptr %5, align 4
  %6 = load ptr, ptr %4, align 8
  %7 = load i32, ptr %5, align 4
  %8 = getelementptr inbounds %"class.LIEF::ELF::Note", ptr %6, i32 0, i32 4
  %9 = getelementptr inbounds %"class.LIEF::ELF::CorePrStatus", ptr %6, i32 0, i32 2
  %10 = load i32, ptr %9, align 4
  %11 = getelementptr inbounds %"class.LIEF::ELF::CorePrStatus", ptr %6, i32 0, i32 1
  %12 = load i32, ptr %11, align 8
  %13 = call { i64, i8 } @_ZN4LIEF3ELF12get_reg_implINS0_12CorePrStatus9Registers3ARMEEEN2tl8expectedIm11lief_errorsEET_RKSt6vectorIhSaIhEENS0_6Header5CLASSENS0_4ARCHE(i32 noundef %7, ptr noundef nonnull align 8 dereferenceable(24) %8, i32 noundef %10, i32 noundef %12)
  %14 = getelementptr inbounds { i64, i8 }, ptr %3, i32 0, i32 0
  %15 = extractvalue { i64, i8 } %13, 0
  store i64 %15, ptr %14, align 8
  %16 = getelementptr inbounds { i64, i8 }, ptr %3, i32 0, i32 1
  %17 = extractvalue { i64, i8 } %13, 1
  store i8 %17, ptr %16, align 8
  %18 = load { i64, i8 }, ptr %3, align 8
  ret { i64, i8 } %18
}

; Function Attrs: mustprogress uwtable
define { i64, i8 } @_ZNK4LIEF3ELF12CorePrStatus3getENS1_9Registers7AARCH64E(ptr noundef nonnull align 8 dereferenceable(80) %0, i32 noundef %1) #3 align 2 {
  %3 = alloca %"class.tl::expected", align 8
  %4 = alloca ptr, align 8
  %5 = alloca i32, align 4
  store ptr %0, ptr %4, align 8
  store i32 %1, ptr %5, align 4
  %6 = load ptr, ptr %4, align 8
  %7 = load i32, ptr %5, align 4
  %8 = getelementptr inbounds %"class.LIEF::ELF::Note", ptr %6, i32 0, i32 4
  %9 = getelementptr inbounds %"class.LIEF::ELF::CorePrStatus", ptr %6, i32 0, i32 2
  %10 = load i32, ptr %9, align 4
  %11 = getelementptr inbounds %"class.LIEF::ELF::CorePrStatus", ptr %6, i32 0, i32 1
  %12 = load i32, ptr %11, align 8
  %13 = call { i64, i8 } @_ZN4LIEF3ELF12get_reg_implINS0_12CorePrStatus9Registers7AARCH64EEEN2tl8expectedIm11lief_errorsEET_RKSt6vectorIhSaIhEENS0_6Header5CLASSENS0_4ARCHE(i32 noundef %7, ptr noundef nonnull align 8 dereferenceable(24) %8, i32 noundef %10, i32 noundef %12)
  %14 = getelementptr inbounds { i64, i8 }, ptr %3, i32 0, i32 0
  %15 = extractvalue { i64, i8 } %13, 0
  store i64 %15, ptr %14, align 8
  %16 = getelementptr inbounds { i64, i8 }, ptr %3, i32 0, i32 1
  %17 = extractvalue { i64, i8 } %13, 1
  store i8 %17, ptr %16, align 8
  %18 = load { i64, i8 }, ptr %3, align 8
  ret { i64, i8 } %18
}

; Function Attrs: mustprogress uwtable
define { i64, i8 } @_ZNK4LIEF3ELF12CorePrStatus2pcEv(ptr noundef nonnull align 8 dereferenceable(80) %0) #3 align 2 {
  %2 = alloca %"class.tl::expected", align 8
  %3 = alloca ptr, align 8
  %4 = alloca %"class.tl::unexpected", align 4
  store ptr %0, ptr %3, align 8
  %5 = load ptr, ptr %3, align 8
  %6 = getelementptr inbounds %"class.LIEF::ELF::CorePrStatus", ptr %5, i32 0, i32 1
  %7 = load i32, ptr %6, align 8
  switch i32 %7, label %32 [
    i32 183, label %8
    i32 40, label %14
    i32 3, label %20
    i32 62, label %26
  ]

8:                                                ; preds = %1
  %9 = call { i64, i8 } @_ZNK4LIEF3ELF12CorePrStatus3getENS1_9Registers7AARCH64E(ptr noundef nonnull align 8 dereferenceable(80) %5, i32 noundef 32)
  %10 = getelementptr inbounds { i64, i8 }, ptr %2, i32 0, i32 0
  %11 = extractvalue { i64, i8 } %9, 0
  store i64 %11, ptr %10, align 8
  %12 = getelementptr inbounds { i64, i8 }, ptr %2, i32 0, i32 1
  %13 = extractvalue { i64, i8 } %9, 1
  store i8 %13, ptr %12, align 8
  br label %35

14:                                               ; preds = %1
  %15 = call { i64, i8 } @_ZNK4LIEF3ELF12CorePrStatus3getENS1_9Registers3ARME(ptr noundef nonnull align 8 dereferenceable(80) %5, i32 noundef 15)
  %16 = getelementptr inbounds { i64, i8 }, ptr %2, i32 0, i32 0
  %17 = extractvalue { i64, i8 } %15, 0
  store i64 %17, ptr %16, align 8
  %18 = getelementptr inbounds { i64, i8 }, ptr %2, i32 0, i32 1
  %19 = extractvalue { i64, i8 } %15, 1
  store i8 %19, ptr %18, align 8
  br label %35

20:                                               ; preds = %1
  %21 = call { i64, i8 } @_ZNK4LIEF3ELF12CorePrStatus3getENS1_9Registers3X86E(ptr noundef nonnull align 8 dereferenceable(80) %5, i32 noundef 12)
  %22 = getelementptr inbounds { i64, i8 }, ptr %2, i32 0, i32 0
  %23 = extractvalue { i64, i8 } %21, 0
  store i64 %23, ptr %22, align 8
  %24 = getelementptr inbounds { i64, i8 }, ptr %2, i32 0, i32 1
  %25 = extractvalue { i64, i8 } %21, 1
  store i8 %25, ptr %24, align 8
  br label %35

26:                                               ; preds = %1
  %27 = call { i64, i8 } @_ZNK4LIEF3ELF12CorePrStatus3getENS1_9Registers6X86_64E(ptr noundef nonnull align 8 dereferenceable(80) %5, i32 noundef 16)
  %28 = getelementptr inbounds { i64, i8 }, ptr %2, i32 0, i32 0
  %29 = extractvalue { i64, i8 } %27, 0
  store i64 %29, ptr %28, align 8
  %30 = getelementptr inbounds { i64, i8 }, ptr %2, i32 0, i32 1
  %31 = extractvalue { i64, i8 } %27, 1
  store i8 %31, ptr %30, align 8
  br label %35

32:                                               ; preds = %1
  %33 = call i32 @_Z15make_error_code11lief_errors(i32 noundef 4)
  %34 = getelementptr inbounds %"class.tl::unexpected", ptr %4, i32 0, i32 0
  store i32 %33, ptr %34, align 4
  call void @_ZN2tl8expectedIm11lief_errorsEC2IS1_TnPNSt9enable_ifIXsr3std16is_constructibleIS1_OT_EE5valueEvE4typeELPv0ETnPNS4_IXsr3std14is_convertibleIS6_S1_EE5valueEvE4typeELSA_0EEEONS_10unexpectedIS5_EE(ptr noundef nonnull align 8 dereferenceable(9) %2, ptr noundef nonnull align 4 dereferenceable(4) %4) #16
  br label %35

35:                                               ; preds = %32, %26, %20, %14, %8
  %36 = load { i64, i8 }, ptr %2, align 8
  ret { i64, i8 } %36
}